target datalayout = "e-m:e-p270:32:32-p271:32:32-p272:64:64-i64:64-i128:128-f80:128-n8:16:32:64-S128"
target triple = "x86_64-unknown-linux-gnu"

%"class.cvc5::internal::NodeTemplate.0" = type { ptr }
%"class.cvc5::internal::NodeTemplate" = type { ptr }
%"class.cvc5::internal::theory::arith::linear::Constraint" = type <{ i32, i32, %"class.cvc5::internal::DeltaRational", ptr, %"class.cvc5::internal::NodeTemplate", ptr, i8, [7 x i8], i64, %"class.cvc5::internal::NodeTemplate.0", i64, i8, [7 x i8], %"struct.std::_Rb_tree_iterator", i8, [7 x i8] }>
%"class.cvc5::internal::DeltaRational" = type { %"class.cvc5::internal::Rational", %"class.cvc5::internal::Rational" }
%"class.cvc5::internal::Rational" = type { %class.__gmp_expr }
%class.__gmp_expr = type { [1 x %struct.__mpq_struct] }
%struct.__mpq_struct = type { %struct.__mpz_struct, %struct.__mpz_struct }
%struct.__mpz_struct = type { i32, i32, ptr }
%"struct.std::_Rb_tree_iterator" = type { ptr }
%"class.cvc5::internal::theory::arith::linear::ValueCollection" = type { ptr, ptr, ptr, ptr }

; Function Attrs: mustprogress nounwind uwtable
define hidden noundef zeroext i1 @_ZNK4cvc58internal6theory5arith6linear15ValueCollection14hasDisequalityEv(ptr noundef nonnull align 8 dereferenceable(32) %this) #4 align 2 {
entry:
  %this.addr = alloca ptr, align 8
  store ptr %this, ptr %this.addr, align 8
  %this1 = load ptr, ptr %this.addr, align 8
  %d_disequality = getelementptr inbounds %"class.cvc5::internal::theory::arith::linear::ValueCollection", ptr %this1, i32 0, i32 3
  %0 = load ptr, ptr %d_disequality, align 8
  %cmp = icmp ne ptr %0, null
  ret i1 %cmp
}

; Function Attrs: mustprogress nounwind uwtable
define hidden noundef zeroext i1 @_ZNK4cvc58internal6theory5arith6linear15ValueCollection11hasEqualityEv(ptr noundef nonnull align 8 dereferenceable(32) %this) #4 align 2 {
entry:
  %this.addr = alloca ptr, align 8
  store ptr %this, ptr %this.addr, align 8
  %this1 = load ptr, ptr %this.addr, align 8
  %d_equality = getelementptr inbounds %"class.cvc5::internal::theory::arith::linear::ValueCollection", ptr %this1, i32 0, i32 2
  %0 = load ptr, ptr %d_equality, align 8
  %cmp = icmp ne ptr %0, null
  ret i1 %cmp
}

; Function Attrs: mustprogress nounwind uwtable
define hidden noundef zeroext i1 @_ZNK4cvc58internal6theory5arith6linear15ValueCollection13hasUpperBoundEv(ptr noundef nonnull align 8 dereferenceable(32) %this) #4 align 2 {
entry:
  %this.addr = alloca ptr, align 8
  store ptr %this, ptr %this.addr, align 8
  %this1 = load ptr, ptr %this.addr, align 8
  %d_upperBound = getelementptr inbounds %"class.cvc5::internal::theory::arith::linear::ValueCollection", ptr %this1, i32 0, i32 1
  %0 = load ptr, ptr %d_upperBound, align 8
  %cmp = icmp ne ptr %0, null
  ret i1 %cmp
}

; Function Attrs: mustprogress nounwind uwtable
define hidden noundef zeroext i1 @_ZNK4cvc58internal6theory5arith6linear15ValueCollection13hasLowerBoundEv(ptr noundef nonnull align 8 dereferenceable(32) %this) #4 align 2 {
entry:
  %this.addr = alloca ptr, align 8
  store ptr %this, ptr %this.addr, align 8
  %this1 = load ptr, ptr %this.addr, align 8
  %d_lowerBound = getelementptr inbounds %"class.cvc5::internal::theory::arith::linear::ValueCollection", ptr %this1, i32 0, i32 0
  %0 = load ptr, ptr %d_lowerBound, align 8
  %cmp = icmp ne ptr %0, null
  ret i1 %cmp
}

; Function Attrs: mustprogress nounwind uwtable
define linkonce_odr hidden noundef nonnull align 8 dereferenceable(64) ptr @_ZNK4cvc58internal6theory5arith6linear10Constraint8getValueEv(ptr noundef nonnull align 8 dereferenceable(145) %this) #4 comdat align 2 {
entry:
  %this.addr = alloca ptr, align 8
  store ptr %this, ptr %this.addr, align 8
  %this1 = load ptr, ptr %this.addr, align 8
  %d_value = getelementptr inbounds %"class.cvc5::internal::theory::arith::linear::Constraint", ptr %this1, i32 0, i32 2
  ret ptr %d_value
}

; Function Attrs: mustprogress nounwind uwtable
define hidden noundef ptr @_ZNK4cvc58internal6theory5arith6linear15ValueCollection7nonNullEv(ptr noundef nonnull align 8 dereferenceable(32) %this) #4 align 2 {
entry:
  %retval = alloca ptr, align 8
  %this.addr = alloca ptr, align 8
  store ptr %this, ptr %this.addr, align 8
  %this1 = load ptr, ptr %this.addr, align 8
  %call = call noundef zeroext i1 @_ZNK4cvc58internal6theory5arith6linear15ValueCollection13hasLowerBoundEv(ptr noundef nonnull align 8 dereferenceable(32) %this1)
  br i1 %call, label %if.then, label %if.else

if.then:                                          ; preds = %entry
  %d_lowerBound = getelementptr inbounds %"class.cvc5::internal::theory::arith::linear::ValueCollection", ptr %this1, i32 0, i32 0
  %0 = load ptr, ptr %d_lowerBound, align 8
  store ptr %0, ptr %retval, align 8
  br label %return

if.else:                                          ; preds = %entry
  %call2 = call noundef zeroext i1 @_ZNK4cvc58internal6theory5arith6linear15ValueCollection13hasUpperBoundEv(ptr noundef nonnull align 8 dereferenceable(32) %this1)
  br i1 %call2, label %if.then3, label %if.else4

if.then3:                                         ; preds = %if.else
  %d_upperBound = getelementptr inbounds %"class.cvc5::internal::theory::arith::linear::ValueCollection", ptr %this1, i32 0, i32 1
  %1 = load ptr, ptr %d_upperBound, align 8
  store ptr %1, ptr %retval, align 8
  br label %return

if.else4:                                         ; preds = %if.else
  %call5 = call noundef zeroext i1 @_ZNK4cvc58internal6theory5arith6linear15ValueCollection11hasEqualityEv(ptr noundef nonnull align 8 dereferenceable(32) %this1)
  br i1 %call5, label %if.then6, label %if.else7

if.then6:                                         ; preds = %if.else4
  %d_equality = getelementptr inbounds %"class.cvc5::internal::theory::arith::linear::ValueCollection", ptr %this1, i32 0, i32 2
  %2 = load ptr, ptr %d_equality, align 8
  store ptr %2, ptr %retval, align 8
  br label %return

if.else7:                                         ; preds = %if.else4
  %call8 = call noundef zeroext i1 @_ZNK4cvc58internal6theory5arith6linear15ValueCollection14hasDisequalityEv(ptr noundef nonnull align 8 dereferenceable(32) %this1)
  br i1 %call8, label %if.then9, label %if.else10

if.then9:                                         ; preds = %if.else7
  %d_disequality = getelementptr inbounds %"class.cvc5::internal::theory::arith::linear::ValueCollection", ptr %this1, i32 0, i32 3
  %3 = load ptr, ptr %d_disequality, align 8
  store ptr %3, ptr %retval, align 8
  br label %return

if.else10:                                        ; preds = %if.else7
  store ptr null, ptr %retval, align 8
  br label %return

return:                                           ; preds = %if.else10, %if.then9, %if.then6, %if.then3, %if.then
  %4 = load ptr, ptr %retval, align 8
  ret ptr %4
}

; Function Attrs: mustprogress uwtable
define hidden noundef nonnull align 8 dereferenceable(64) ptr @_ZNK4cvc58internal6theory5arith6linear15ValueCollection8getValueEv(ptr noundef nonnull align 8 dereferenceable(32) %this) #5 align 2 {
entry:
  %this.addr = alloca ptr, align 8
  store ptr %this, ptr %this.addr, align 8
  %this1 = load ptr, ptr %this.addr, align 8
  %call = call noundef ptr @_ZNK4cvc58internal6theory5arith6linear15ValueCollection7nonNullEv(ptr noundef nonnull align 8 dereferenceable(32) %this1)
  %call2 = call noundef nonnull align 8 dereferenceable(64) ptr @_ZNK4cvc58internal6theory5arith6linear10Constraint8getValueEv(ptr noundef nonnull align 8 dereferenceable(145) %call)
  ret ptr %call2
}